; ModuleID = '56/2579.cpp'
source_filename = "56/2579.cpp"
target datalayout = "e-m:e-p270:32:32-p271:32:32-p272:64:64-i64:64-f80:128-n8:16:32:64-S128"
target triple = "x86_64-pc-linux-gnu"

%"class.std::ios_base::Init" = type { i8 }
%"class.std::basic_istream" = type { i32 (...)**, i64, %"class.std::basic_ios" }
%"class.std::basic_ios" = type { %"class.std::ios_base", %"class.std::basic_ostream"*, i8, i8, %"class.std::basic_streambuf"*, %"class.std::ctype"*, %"class.std::num_put"*, %"class.std::num_get"* }
%"class.std::ios_base" = type { i32 (...)**, i64, i64, i32, i32, i32, %"struct.std::ios_base::_Callback_list"*, %"struct.std::ios_base::_Words", [8 x %"struct.std::ios_base::_Words"], i32, %"struct.std::ios_base::_Words"*, %"class.std::locale" }
%"struct.std::ios_base::_Callback_list" = type { %"struct.std::ios_base::_Callback_list"*, void (i32, %"class.std::ios_base"*, i32)*, i32, i32 }
%"struct.std::ios_base::_Words" = type { i8*, i64 }
%"class.std::locale" = type { %"class.std::locale::_Impl"* }
%"class.std::locale::_Impl" = type { i32, %"class.std::locale::facet"**, i64, %"class.std::locale::facet"**, i8** }
%"class.std::locale::facet" = type <{ i32 (...)**, i32, [4 x i8] }>
%"class.std::basic_ostream" = type { i32 (...)**, %"class.std::basic_ios" }
%"class.std::basic_streambuf" = type { i32 (...)**, i8*, i8*, i8*, i8*, i8*, i8*, %"class.std::locale" }
%"class.std::ctype" = type <{ %"class.std::locale::facet.base", [4 x i8], %struct.__locale_struct*, i8, [7 x i8], i32*, i32*, i16*, i8, [256 x i8], [256 x i8], i8, [6 x i8] }>
%"class.std::locale::facet.base" = type <{ i32 (...)**, i32 }>
%struct.__locale_struct = type { [13 x %struct.__locale_data*], i16*, i32*, i32*, [13 x i8*] }
%struct.__locale_data = type opaque
%"class.std::num_put" = type { %"class.std::locale::facet.base", [4 x i8] }
%"class.std::num_get" = type { %"class.std::locale::facet.base", [4 x i8] }

@_ZStL8__ioinit = internal global %"class.std::ios_base::Init" zeroinitializer, align 1
@__dso_handle = external hidden global i8
@_ZSt3cin = external dso_local global %"class.std::basic_istream", align 8
@_ZSt4cout = external dso_local global %"class.std::basic_ostream", align 8
@llvm.global_ctors = appending global [1 x { i32, void ()*, i8* }] [{ i32, void ()*, i8* } { i32 65535, void ()* @_GLOBAL__sub_I_2579.cpp, i8* null }]

; Function Attrs: noinline uwtable
define internal void @__cxx_global_var_init() #0 section ".text.startup" {
  call void @_ZNSt8ios_base4InitC1Ev(%"class.std::ios_base::Init"* @_ZStL8__ioinit)
  %1 = call i32 @__cxa_atexit(void (i8*)* bitcast (void (%"class.std::ios_base::Init"*)* @_ZNSt8ios_base4InitD1Ev to void (i8*)*), i8* getelementptr inbounds (%"class.std::ios_base::Init", %"class.std::ios_base::Init"* @_ZStL8__ioinit, i32 0, i32 0), i8* @__dso_handle) #3
  ret void
}

declare dso_local void @_ZNSt8ios_base4InitC1Ev(%"class.std::ios_base::Init"*) unnamed_addr #1

; Function Attrs: nounwind
declare dso_local void @_ZNSt8ios_base4InitD1Ev(%"class.std::ios_base::Init"*) unnamed_addr #2

; Function Attrs: nounwind
declare dso_local i32 @__cxa_atexit(void (i8*)*, i8*, i8*) #3

; Function Attrs: noinline norecurse uwtable
define dso_local i32 @main() #4 {
  %1 = alloca i32, align 4
  %2 = alloca i32, align 4
  %3 = alloca i32, align 4
  %4 = alloca i32, align 4
  %5 = alloca i32, align 4
  %6 = alloca i32, align 4
  %7 = alloca i32, align 4
  %8 = alloca i32, align 4
  store i32 0, i32* %1, align 4
  %9 = call dereferenceable(280) %"class.std::basic_istream"* @_ZNSirsERi(%"class.std::basic_istream"* @_ZSt3cin, i32* dereferenceable(4) %7)
  %10 = load i32, i32* %7, align 4
  %11 = icmp sge i32 %10, 10000
  br i1 %11, label %12, label %65

12:                                               ; preds = %0
  %13 = load i32, i32* %7, align 4
  %14 = sdiv i32 %13, 10000
  store i32 %14, i32* %2, align 4
  %15 = load i32, i32* %7, align 4
  %16 = load i32, i32* %2, align 4
  %17 = mul nsw i32 10000, %16
  %18 = sub nsw i32 %15, %17
  %19 = sdiv i32 %18, 1000
  store i32 %19, i32* %3, align 4
  %20 = load i32, i32* %7, align 4
  %21 = load i32, i32* %2, align 4
  %22 = mul nsw i32 10000, %21
  %23 = sub nsw i32 %20, %22
  %24 = load i32, i32* %3, align 4
  %25 = mul nsw i32 1000, %24
  %26 = sub nsw i32 %23, %25
  %27 = sdiv i32 %26, 100
  store i32 %27, i32* %4, align 4
  %28 = load i32, i32* %7, align 4
  %29 = load i32, i32* %2, align 4
  %30 = mul nsw i32 10000, %29
  %31 = sub nsw i32 %28, %30
  %32 = load i32, i32* %3, align 4
  %33 = mul nsw i32 1000, %32
  %34 = sub nsw i32 %31, %33
  %35 = load i32, i32* %4, align 4
  %36 = mul nsw i32 100, %35
  %37 = sub nsw i32 %34, %36
  %38 = sdiv i32 %37, 10
  store i32 %38, i32* %5, align 4
  %39 = load i32, i32* %7, align 4
  %40 = load i32, i32* %2, align 4
  %41 = mul nsw i32 10000, %40
  %42 = sub nsw i32 %39, %41
  %43 = load i32, i32* %3, align 4
  %44 = mul nsw i32 1000, %43
  %45 = sub nsw i32 %42, %44
  %46 = load i32, i32* %4, align 4
  %47 = mul nsw i32 100, %46
  %48 = sub nsw i32 %45, %47
  %49 = load i32, i32* %5, align 4
  %50 = mul nsw i32 10, %49
  %51 = sub nsw i32 %48, %50
  store i32 %51, i32* %6, align 4
  %52 = load i32, i32* %6, align 4
  %53 = mul nsw i32 %52, 10000
  %54 = load i32, i32* %5, align 4
  %55 = mul nsw i32 %54, 1000
  %56 = add nsw i32 %53, %55
  %57 = load i32, i32* %4, align 4
  %58 = mul nsw i32 %57, 100
  %59 = add nsw i32 %56, %58
  %60 = load i32, i32* %3, align 4
  %61 = mul nsw i32 %60, 10
  %62 = add nsw i32 %59, %61
  %63 = load i32, i32* %2, align 4
  %64 = add nsw i32 %62, %63
  store i32 %64, i32* %8, align 4
  br label %148

65:                                               ; preds = %0
  %66 = load i32, i32* %7, align 4
  %67 = icmp sge i32 %66, 1000
  br i1 %67, label %68, label %104

68:                                               ; preds = %65
  %69 = load i32, i32* %7, align 4
  %70 = sdiv i32 %69, 1000
  store i32 %70, i32* %2, align 4
  %71 = load i32, i32* %7, align 4
  %72 = load i32, i32* %2, align 4
  %73 = mul nsw i32 1000, %72
  %74 = sub nsw i32 %71, %73
  %75 = sdiv i32 %74, 100
  store i32 %75, i32* %3, align 4
  %76 = load i32, i32* %7, align 4
  %77 = load i32, i32* %2, align 4
  %78 = mul nsw i32 1000, %77
  %79 = sub nsw i32 %76, %78
  %80 = load i32, i32* %3, align 4
  %81 = mul nsw i32 100, %80
  %82 = sub nsw i32 %79, %81
  %83 = sdiv i32 %82, 10
  store i32 %83, i32* %4, align 4
  %84 = load i32, i32* %7, align 4
  %85 = load i32, i32* %2, align 4
  %86 = mul nsw i32 1000, %85
  %87 = sub nsw i32 %84, %86
  %88 = load i32, i32* %3, align 4
  %89 = mul nsw i32 100, %88
  %90 = sub nsw i32 %87, %89
  %91 = load i32, i32* %4, align 4
  %92 = mul nsw i32 10, %91
  %93 = sub nsw i32 %90, %92
  store i32 %93, i32* %5, align 4
  %94 = load i32, i32* %5, align 4
  %95 = mul nsw i32 %94, 1000
  %96 = load i32, i32* %4, align 4
  %97 = mul nsw i32 %96, 100
  %98 = add nsw i32 %95, %97
  %99 = load i32, i32* %3, align 4
  %100 = mul nsw i32 %99, 10
  %101 = add nsw i32 %98, %100
  %102 = load i32, i32* %2, align 4
  %103 = add nsw i32 %101, %102
  store i32 %103, i32* %8, align 4
  br label %147

104:                                              ; preds = %65
  %105 = load i32, i32* %7, align 4
  %106 = icmp sge i32 %105, 100
  br i1 %106, label %107, label %129

107:                                              ; preds = %104
  %108 = load i32, i32* %7, align 4
  %109 = sdiv i32 %108, 100
  store i32 %109, i32* %2, align 4
  %110 = load i32, i32* %7, align 4
  %111 = load i32, i32* %2, align 4
  %112 = mul nsw i32 100, %111
  %113 = sub nsw i32 %110, %112
  %114 = sdiv i32 %113, 10
  store i32 %114, i32* %3, align 4
  %115 = load i32, i32* %7, align 4
  %116 = load i32, i32* %2, align 4
  %117 = mul nsw i32 100, %116
  %118 = sub nsw i32 %115, %117
  %119 = load i32, i32* %3, align 4
  %120 = mul nsw i32 10, %119
  %121 = sub nsw i32 %118, %120
  store i32 %121, i32* %4, align 4
  %122 = load i32, i32* %4, align 4
  %123 = mul nsw i32 %122, 100
  %124 = load i32, i32* %3, align 4
  %125 = mul nsw i32 %124, 10
  %126 = add nsw i32 %123, %125
  %127 = load i32, i32* %2, align 4
  %128 = add nsw i32 %126, %127
  store i32 %128, i32* %8, align 4
  br label %146

129:                                              ; preds = %104
  %130 = load i32, i32* %7, align 4
  %131 = icmp sge i32 %130, 10
  br i1 %131, label %132, label %143

132:                                              ; preds = %129
  %133 = load i32, i32* %7, align 4
  %134 = sdiv i32 %133, 10
  store i32 %134, i32* %2, align 4
  %135 = load i32, i32* %7, align 4
  %136 = load i32, i32* %2, align 4
  %137 = mul nsw i32 10, %136
  %138 = sub nsw i32 %135, %137
  store i32 %138, i32* %3, align 4
  %139 = load i32, i32* %3, align 4
  %140 = mul nsw i32 %139, 10
  %141 = load i32, i32* %2, align 4
  %142 = add nsw i32 %140, %141
  store i32 %142, i32* %8, align 4
  br label %145

143:                                              ; preds = %129
  %144 = load i32, i32* %7, align 4
  store i32 %144, i32* %8, align 4
  br label %145

145:                                              ; preds = %143, %132
  br label %146

146:                                              ; preds = %145, %107
  br label %147

147:                                              ; preds = %146, %68
  br label %148

148:                                              ; preds = %147, %12
  %149 = load i32, i32* %8, align 4
  %150 = call dereferenceable(272) %"class.std::basic_ostream"* @_ZNSolsEi(%"class.std::basic_ostream"* @_ZSt4cout, i32 %149)
  ret i32 0
}

declare dso_local dereferenceable(280) %"class.std::basic_istream"* @_ZNSirsERi(%"class.std::basic_istream"*, i32* dereferenceable(4)) #1

declare dso_local dereferenceable(272) %"class.std::basic_ostream"* @_ZNSolsEi(%"class.std::basic_ostream"*, i32) #1

; Function Attrs: noinline uwtable
define internal void @_GLOBAL__sub_I_2579.cpp() #0 section ".text.startup" {
  call void @__cxx_global_var_init()
  ret void
}


!llvm.module.flags = !{!0}
!llvm.ident = !{!1}

!0 = !{i32 1, !"wchar_size", i32 4}
!1 = !{!"clang version 10.0.0-4ubuntu1 "}
